; Function Attrs: mustprogress uwtable
define hidden void @_ZN2cv3dnn7softmaxERNS_3MatERKS1_i(ptr noundef nonnull align 8 dereferenceable(96) %0, ptr noundef nonnull align 8 dereferenceable(96) %1, i32 noundef %2) local_unnamed_addr #3 {
  %4 = getelementptr inbounds nuw i8, ptr %1, i64 64
  %5 = load ptr, ptr %4, align 8, !tbaa !43
  %6 = sext i32 %2 to i64
  %7 = getelementptr inbounds i32, ptr %5, i64 %6
  %8 = load i32, ptr %7, align 4, !tbaa !3
  tail call void @_ZN2cv3dnn7softmaxERNS_3MatERKS1_iii(ptr noundef nonnull align 8 dereferenceable(96) %0, ptr noundef nonnull align 8 dereferenceable(96) %1, i32 noundef %2, i32 noundef 0, i32 noundef %8)
  ret void
}